target datalayout = "e-m:e-p270:32:32-p271:32:32-p272:64:64-i64:64-i128:128-f80:128-n8:16:32:64-S128"
target triple = "x86_64-pc-linux-gnu"

%struct.dt_pthread_mutex_t = type { %union.pthread_mutex_t }
%union.pthread_mutex_t = type { %struct.__pthread_mutex_s }
%struct.__pthread_mutex_s = type { i32, i32, i32, i32, i32, i16, i16, %struct.__pthread_internal_list }
%struct.__pthread_internal_list = type { ptr, ptr }
%struct.dt_iop_module_t = type { i32, ptr, ptr, ptr, ptr, ptr, ptr, ptr, ptr, ptr, ptr, ptr, ptr, ptr, ptr, ptr, ptr, ptr, ptr, ptr, ptr, ptr, ptr, ptr, ptr, ptr, ptr, ptr, ptr, ptr, ptr, ptr, ptr, ptr, ptr, ptr, ptr, ptr, ptr, ptr, ptr, ptr, ptr, ptr, ptr, ptr, ptr, ptr, ptr, ptr, ptr, ptr, ptr, ptr, ptr, ptr, ptr, [20 x i8], i32, i32, i32, i32, i32, i32, i32, [8 x i8], [4 x float], [4 x float], [4 x float], [4 x float], [4 x float], [4 x float], ptr, %struct.dt_dev_histogram_stats_t, [4 x i32], i32, i32, ptr, i32, i32, ptr, ptr, i32, ptr, %struct.dt_pthread_mutex_t, ptr, ptr, ptr, ptr, %struct.anon, ptr, ptr, ptr, ptr, ptr, ptr, ptr, i32, ptr, ptr, ptr, ptr, ptr, ptr, ptr, i32, ptr, i32, [128 x i8], i32, ptr, ptr, i32, [12 x i8] }
%struct.dt_dev_histogram_stats_t = type { i32, i64, i32, i32 }
%struct.anon = type { %struct.anon.0, %struct.anon.1 }
%struct.anon.0 = type { ptr, ptr }
%struct.anon.1 = type { ptr, i32 }
%struct.dt_iop_rgblevels_gui_data_t = type { %struct.dt_iop_rgblevels_params_t, ptr, ptr, ptr, ptr, ptr, ptr, i32, i32, float, float, float, float, [4 x float], i32, double, double, i32, i32, float, i32, float, ptr, ptr, ptr }
%struct.dt_iop_rgblevels_params_t = type { i32, i32, [3 x [3 x float]] }

; Function Attrs: nounwind uwtable
define void @change_image(ptr noundef %0) #0 {
  %2 = alloca ptr, align 8
  %3 = alloca ptr, align 8
  store ptr %0, ptr %2, align 8, !tbaa !6
  call void @llvm.lifetime.start.p0(i64 8, ptr %3) #13
  %4 = load ptr, ptr %2, align 8, !tbaa !6
  %5 = getelementptr inbounds nuw %struct.dt_iop_module_t, ptr %4, i32 0, i32 83
  %6 = load ptr, ptr %5, align 16, !tbaa !21
  store ptr %6, ptr %3, align 8, !tbaa !37
  %7 = load ptr, ptr %3, align 8, !tbaa !37
  %8 = getelementptr inbounds nuw %struct.dt_iop_rgblevels_gui_data_t, ptr %7, i32 0, i32 20
  store i32 0, ptr %8, align 4, !tbaa !129
  %9 = load ptr, ptr %3, align 8, !tbaa !37
  %10 = getelementptr inbounds nuw %struct.dt_iop_rgblevels_gui_data_t, ptr %9, i32 0, i32 7
  store i32 0, ptr %10, align 8, !tbaa !120
  %11 = load ptr, ptr %3, align 8, !tbaa !37
  %12 = getelementptr inbounds nuw %struct.dt_iop_rgblevels_gui_data_t, ptr %11, i32 0, i32 8
  store i32 0, ptr %12, align 4, !tbaa !39
  %13 = load ptr, ptr %3, align 8, !tbaa !37
  %14 = getelementptr inbounds nuw %struct.dt_iop_rgblevels_gui_data_t, ptr %13, i32 0, i32 12
  store float 0.000000e+00, ptr %14, align 4, !tbaa !48
  %15 = load ptr, ptr %3, align 8, !tbaa !37
  %16 = getelementptr inbounds nuw %struct.dt_iop_rgblevels_gui_data_t, ptr %15, i32 0, i32 11
  store float 0.000000e+00, ptr %16, align 8, !tbaa !50
  %17 = load ptr, ptr %3, align 8, !tbaa !37
  %18 = getelementptr inbounds nuw %struct.dt_iop_rgblevels_gui_data_t, ptr %17, i32 0, i32 10
  store float 0.000000e+00, ptr %18, align 4, !tbaa !47
  %19 = load ptr, ptr %3, align 8, !tbaa !37
  %20 = getelementptr inbounds nuw %struct.dt_iop_rgblevels_gui_data_t, ptr %19, i32 0, i32 9
  store float 0.000000e+00, ptr %20, align 8, !tbaa !49
  %21 = load ptr, ptr %3, align 8, !tbaa !37
  %22 = getelementptr inbounds nuw %struct.dt_iop_rgblevels_gui_data_t, ptr %21, i32 0, i32 13
  %23 = getelementptr inbounds [4 x float], ptr %22, i64 0, i64 3
  store float 0.000000e+00, ptr %23, align 4, !tbaa !15
  %24 = load ptr, ptr %3, align 8, !tbaa !37
  %25 = getelementptr inbounds nuw %struct.dt_iop_rgblevels_gui_data_t, ptr %24, i32 0, i32 13
  %26 = getelementptr inbounds [4 x float], ptr %25, i64 0, i64 2
  store float 0.000000e+00, ptr %26, align 8, !tbaa !15
  %27 = load ptr, ptr %3, align 8, !tbaa !37
  %28 = getelementptr inbounds nuw %struct.dt_iop_rgblevels_gui_data_t, ptr %27, i32 0, i32 13
  %29 = getelementptr inbounds [4 x float], ptr %28, i64 0, i64 1
  store float 0.000000e+00, ptr %29, align 4, !tbaa !15
  %30 = load ptr, ptr %3, align 8, !tbaa !37
  %31 = getelementptr inbounds nuw %struct.dt_iop_rgblevels_gui_data_t, ptr %30, i32 0, i32 13
  %32 = getelementptr inbounds [4 x float], ptr %31, i64 0, i64 0
  store float 0.000000e+00, ptr %32, align 8, !tbaa !15
  %33 = load ptr, ptr %3, align 8, !tbaa !37
  %34 = getelementptr inbounds nuw %struct.dt_iop_rgblevels_gui_data_t, ptr %33, i32 0, i32 14
  store i32 0, ptr %34, align 8, !tbaa !44
  call void @llvm.lifetime.end.p0(i64 8, ptr %3) #13
  ret void
}