; Function Attrs: mustprogress nofree norecurse nosync nounwind willreturn memory(write, argmem: readwrite, inaccessiblemem: none) uwtable
define void @change_image(ptr noundef readonly captures(none) %0) local_unnamed_addr #14 {
  %2 = getelementptr inbounds nuw i8, ptr %0, i64 704
  %3 = load ptr, ptr %2, align 16, !tbaa !6
  %4 = getelementptr inbounds nuw i8, ptr %3, i64 172
  store i32 0, ptr %4, align 4, !tbaa !116
  %5 = getelementptr inbounds nuw i8, ptr %3, i64 96
  tail call void @llvm.memset.p0.i64(ptr noundef nonnull align 8 dereferenceable(44) %5, i8 0, i64 44, i1 false)
  ret void
}